target datalayout = "e-m:e-p270:32:32-p271:32:32-p272:64:64-i64:64-i128:128-f80:128-n8:16:32:64-S128"
target triple = "x86_64-pc-linux-gnu"

%class.AdaptiveSizePolicy = type { ptr, double, i64, i64, i64, %class.GCOverheadChecker, ptr, ptr, ptr, ptr, ptr, ptr, ptr, ptr, ptr, ptr, ptr, ptr, ptr, ptr, double, double, double, i8, i32, i32, i32, i32, i8, i8, i8, i32, i32, i64, i64 }
%class.GCOverheadChecker = type { i8, i32 }

; Function Attrs: mustprogress nounwind uwtable
define linkonce_odr hidden noundef zeroext i1 @_ZNK18AdaptiveSizePolicy47decrement_tenuring_threshold_for_survivor_limitEv(ptr noundef nonnull align 8 dereferenceable(232) %0) #1 comdat align 2 {
  %2 = alloca ptr, align 8
  store ptr %0, ptr %2, align 8
  %3 = load ptr, ptr %2, align 8
  %4 = getelementptr inbounds %class.AdaptiveSizePolicy, ptr %3, i32 0, i32 30
  %5 = load i8, ptr %4, align 2
  %6 = trunc i8 %5 to i1
  ret i1 %6
}

; Function Attrs: mustprogress nounwind uwtable
define linkonce_odr hidden noundef zeroext i1 @_ZNK18AdaptiveSizePolicy40increment_tenuring_threshold_for_gc_costEv(ptr noundef nonnull align 8 dereferenceable(232) %0) #1 comdat align 2 {
  %2 = alloca ptr, align 8
  store ptr %0, ptr %2, align 8
  %3 = load ptr, ptr %2, align 8
  %4 = getelementptr inbounds %class.AdaptiveSizePolicy, ptr %3, i32 0, i32 28
  %5 = load i8, ptr %4, align 4
  %6 = trunc i8 %5 to i1
  ret i1 %6
}

; Function Attrs: mustprogress nounwind uwtable
define linkonce_odr hidden noundef zeroext i1 @_ZNK18AdaptiveSizePolicy40decrement_tenuring_threshold_for_gc_costEv(ptr noundef nonnull align 8 dereferenceable(232) %0) #1 comdat align 2 {
  %2 = alloca ptr, align 8
  store ptr %0, ptr %2, align 8
  %3 = load ptr, ptr %2, align 8
  %4 = getelementptr inbounds %class.AdaptiveSizePolicy, ptr %3, i32 0, i32 29
  %5 = load i8, ptr %4, align 1
  %6 = trunc i8 %5 to i1
  ret i1 %6
}

; Function Attrs: mustprogress nounwind uwtable
define hidden noundef zeroext i1 @_ZNK18AdaptiveSizePolicy25tenuring_threshold_changeEv(ptr noundef nonnull align 8 dereferenceable(232) %0) #1 align 2 {
  %2 = alloca ptr, align 8
  store ptr %0, ptr %2, align 8
  %3 = load ptr, ptr %2, align 8
  %4 = call noundef zeroext i1 @_ZNK18AdaptiveSizePolicy40decrement_tenuring_threshold_for_gc_costEv(ptr noundef nonnull align 8 dereferenceable(232) %3)
  br i1 %4, label %9, label %5

5:                                                ; preds = %1
  %6 = call noundef zeroext i1 @_ZNK18AdaptiveSizePolicy40increment_tenuring_threshold_for_gc_costEv(ptr noundef nonnull align 8 dereferenceable(232) %3)
  br i1 %6, label %9, label %7

7:                                                ; preds = %5
  %8 = call noundef zeroext i1 @_ZNK18AdaptiveSizePolicy47decrement_tenuring_threshold_for_survivor_limitEv(ptr noundef nonnull align 8 dereferenceable(232) %3)
  br label %9

9:                                                ; preds = %7, %5, %1
  %10 = phi i1 [ true, %5 ], [ true, %1 ], [ %8, %7 ]
  ret i1 %10
}