; Function Attrs: mustprogress nofree norecurse nosync nounwind willreturn memory(argmem: read) uwtable
define hidden noundef zeroext i1 @_ZNK18AdaptiveSizePolicy25tenuring_threshold_changeEv(ptr nocapture noundef nonnull readonly align 8 dereferenceable(232) %0) local_unnamed_addr #2 align 2 {
  %2 = getelementptr inbounds i8, ptr %0, i64 205
  %3 = load i8, ptr %2, align 1
  %4 = trunc i8 %3 to i1
  br i1 %4, label %13, label %5

5:                                                ; preds = %1
  %6 = getelementptr inbounds i8, ptr %0, i64 204
  %7 = load i8, ptr %6, align 4
  %8 = trunc i8 %7 to i1
  br i1 %8, label %13, label %9

9:                                                ; preds = %5
  %10 = getelementptr inbounds i8, ptr %0, i64 206
  %11 = load i8, ptr %10, align 2
  %12 = trunc i8 %11 to i1
  br label %13

13:                                               ; preds = %9, %5, %1
  %14 = phi i1 [ true, %5 ], [ true, %1 ], [ %12, %9 ]
  ret i1 %14
}